; Function Attrs: nofree norecurse nosync nounwind memory(write, argmem: readwrite, inaccessiblemem: none) uwtable
define hidden void @opj_bio_write(ptr noundef captures(none) %0, i32 noundef %1, i32 noundef %2) local_unnamed_addr #5 {
  %4 = icmp sgt i32 %2, 0
  br i1 %4, label %.lr.ph, label %._crit_edge

.lr.ph:                                           ; preds = %3
  %5 = getelementptr inbounds nuw i8, ptr %0, i64 28
  %6 = getelementptr inbounds nuw i8, ptr %0, i64 24
  %7 = getelementptr inbounds nuw i8, ptr %0, i64 16
  %8 = getelementptr inbounds nuw i8, ptr %0, i64 8
  %.pre = load i32, ptr %5, align 4, !tbaa !13
  %.pre7.pre = load i32, ptr %6, align 8, !tbaa !12
  br label %9

9:                                                ; preds = %.lr.ph, %opj_bio_putbit.exit
  %.pre7 = phi i32 [ %.pre7.pre, %.lr.ph ], [ %28, %opj_bio_putbit.exit ]
  %10 = phi i32 [ %.pre, %.lr.ph ], [ %26, %opj_bio_putbit.exit ]
  %.0.in5 = phi i32 [ %2, %.lr.ph ], [ %.0, %opj_bio_putbit.exit ]
  %.0 = add nsw i32 %.0.in5, -1
  %11 = lshr i32 %1, %.0
  %12 = and i32 %11, 1
  %13 = icmp eq i32 %10, 0
  br i1 %13, label %14, label %opj_bio_putbit.exit

14:                                               ; preds = %9
  %15 = shl i32 %.pre7, 8
  %16 = and i32 %15, 65280
  store i32 %16, ptr %6, align 8, !tbaa !12
  %17 = icmp eq i32 %16, 65280
  %18 = select i1 %17, i32 7, i32 8
  store i32 %18, ptr %5, align 4, !tbaa !13
  %19 = load ptr, ptr %7, align 8, !tbaa !3
  %20 = load ptr, ptr %8, align 8, !tbaa !11
  %.not.i.i = icmp ult ptr %19, %20
  br i1 %.not.i.i, label %21, label %opj_bio_putbit.exit

21:                                               ; preds = %14
  %22 = trunc i32 %.pre7 to i8
  %23 = getelementptr inbounds nuw i8, ptr %19, i64 1
  store ptr %23, ptr %7, align 8, !tbaa !3
  store i8 %22, ptr %19, align 1, !tbaa !14
  %.pre.i = load i32, ptr %5, align 4, !tbaa !13
  %.pre6 = load i32, ptr %6, align 8, !tbaa !12
  br label %opj_bio_putbit.exit

opj_bio_putbit.exit:                              ; preds = %9, %14, %21
  %24 = phi i32 [ %.pre6, %21 ], [ %16, %14 ], [ %.pre7, %9 ]
  %25 = phi i32 [ %.pre.i, %21 ], [ %18, %14 ], [ %10, %9 ]
  %26 = add i32 %25, -1
  store i32 %26, ptr %5, align 4, !tbaa !13
  %27 = shl nuw i32 %12, %26
  %28 = or i32 %24, %27
  store i32 %28, ptr %6, align 8, !tbaa !12
  %29 = icmp samesign ugt i32 %.0.in5, 1
  br i1 %29, label %9, label %._crit_edge, !llvm.loop !15

._crit_edge:                                      ; preds = %opj_bio_putbit.exit, %3
  ret void
}